; Function Attrs: nounwind uwtable
define dso_local zeroext i1 @ConditionalLockBuffer(i32 noundef %0) local_unnamed_addr #0 {
  %2 = icmp slt i32 %0, 0
  br i1 %2, label %9, label %3

3:                                                ; preds = %1
  %4 = add nsw i32 %0, -1
  %5 = load ptr, ptr @BufferDescriptors, align 8
  %6 = zext i32 %4 to i64
  %7 = getelementptr inbounds nuw %union.BufferDescPadded, ptr %5, i64 %6, i32 0, i32 5
  %8 = tail call zeroext i1 @LWLockConditionalAcquire(ptr noundef nonnull %7, i32 noundef 0) #16
  br label %9

9:                                                ; preds = %1, %3
  %.0 = phi i1 [ %8, %3 ], [ true, %1 ]
  ret i1 %.0
}